target datalayout = "e-m:e-p270:32:32-p271:32:32-p272:64:64-i64:64-i128:128-f80:128-n8:16:32:64-S128"
target triple = "x86_64-pc-linux-gnu"

%struct.vba_project_tag = type { ptr, ptr, ptr, ptr, ptr, ptr, ptr, i32 }

@.str.205 = private unnamed_addr constant [73 x i8] c"create_vba_project: Unable to allocate memory for vba project structure\0A\00", align 1
@.str.206 = private unnamed_addr constant [72 x i8] c"create_vba_project: Unable to allocate memory for vba project elements\0A\00", align 1

; Function Attrs: nounwind uwtable
define internal ptr @create_vba_project(i32 noundef %0, ptr noundef %1, ptr noundef %2) #0 {
  %4 = alloca ptr, align 8
  %5 = alloca i32, align 4
  %6 = alloca ptr, align 8
  %7 = alloca ptr, align 8
  %8 = alloca ptr, align 8
  store i32 %0, ptr %5, align 4
  store ptr %1, ptr %6, align 8
  store ptr %2, ptr %7, align 8
  %9 = call noalias ptr @calloc(i64 noundef 1, i64 noundef 64) #10
  store ptr %9, ptr %8, align 8
  %10 = load ptr, ptr %8, align 8
  %11 = icmp eq ptr %10, null
  br i1 %11, label %12, label %13

12:                                               ; preds = %3
  call void (ptr, ...) @cli_errmsg(ptr noundef @.str.205)
  store ptr null, ptr %4, align 8
  br label %65

13:                                               ; preds = %3
  %14 = load i32, ptr %5, align 4
  %15 = sext i32 %14 to i64
  %16 = mul i64 8, %15
  %17 = call ptr @cli_max_malloc(i64 noundef %16)
  %18 = load ptr, ptr %8, align 8
  %19 = getelementptr inbounds %struct.vba_project_tag, ptr %18, i32 0, i32 0
  store ptr %17, ptr %19, align 8
  %20 = load i32, ptr %5, align 4
  %21 = sext i32 %20 to i64
  %22 = mul i64 4, %21
  %23 = call ptr @cli_max_malloc(i64 noundef %22)
  %24 = load ptr, ptr %8, align 8
  %25 = getelementptr inbounds %struct.vba_project_tag, ptr %24, i32 0, i32 1
  store ptr %23, ptr %25, align 8
  %26 = load ptr, ptr %6, align 8
  %27 = call ptr @cli_safer_strdup(ptr noundef %26)
  %28 = load ptr, ptr %8, align 8
  %29 = getelementptr inbounds %struct.vba_project_tag, ptr %28, i32 0, i32 5
  store ptr %27, ptr %29, align 8
  %30 = load i32, ptr %5, align 4
  %31 = sext i32 %30 to i64
  %32 = mul i64 4, %31
  %33 = call ptr @cli_max_malloc(i64 noundef %32)
  %34 = load ptr, ptr %8, align 8
  %35 = getelementptr inbounds %struct.vba_project_tag, ptr %34, i32 0, i32 2
  store ptr %33, ptr %35, align 8
  %36 = load ptr, ptr %8, align 8
  %37 = getelementptr inbounds %struct.vba_project_tag, ptr %36, i32 0, i32 1
  %38 = load ptr, ptr %37, align 8
  %39 = icmp eq ptr %38, null
  br i1 %39, label %55, label %40

40:                                               ; preds = %13
  %41 = load ptr, ptr %8, align 8
  %42 = getelementptr inbounds %struct.vba_project_tag, ptr %41, i32 0, i32 0
  %43 = load ptr, ptr %42, align 8
  %44 = icmp eq ptr %43, null
  br i1 %44, label %55, label %45

45:                                               ; preds = %40
  %46 = load ptr, ptr %8, align 8
  %47 = getelementptr inbounds %struct.vba_project_tag, ptr %46, i32 0, i32 5
  %48 = load ptr, ptr %47, align 8
  %49 = icmp eq ptr %48, null
  br i1 %49, label %55, label %50

50:                                               ; preds = %45
  %51 = load ptr, ptr %8, align 8
  %52 = getelementptr inbounds %struct.vba_project_tag, ptr %51, i32 0, i32 2
  %53 = load ptr, ptr %52, align 8
  %54 = icmp eq ptr %53, null
  br i1 %54, label %55, label %57

55:                                               ; preds = %50, %45, %40, %13
  %56 = load ptr, ptr %8, align 8
  call void @cli_free_vba_project(ptr noundef %56)
  call void (ptr, ...) @cli_errmsg(ptr noundef @.str.206)
  store ptr null, ptr %4, align 8
  br label %65

57:                                               ; preds = %50
  %58 = load i32, ptr %5, align 4
  %59 = load ptr, ptr %8, align 8
  %60 = getelementptr inbounds %struct.vba_project_tag, ptr %59, i32 0, i32 7
  store i32 %58, ptr %60, align 8
  %61 = load ptr, ptr %7, align 8
  %62 = load ptr, ptr %8, align 8
  %63 = getelementptr inbounds %struct.vba_project_tag, ptr %62, i32 0, i32 6
  store ptr %61, ptr %63, align 8
  %64 = load ptr, ptr %8, align 8
  store ptr %64, ptr %4, align 8
  br label %65

65:                                               ; preds = %57, %55, %12
  %66 = load ptr, ptr %4, align 8
  ret ptr %66
}