; Function Attrs: nounwind uwtable
define internal fastcc noundef ptr @create_vba_project(i32 noundef %0, ptr noundef %1, ptr noundef %2) unnamed_addr #0 {
  %4 = tail call noalias dereferenceable_or_null(64) ptr @calloc(i64 noundef 1, i64 noundef 64) #19
  %5 = icmp eq ptr %4, null
  br i1 %5, label %6, label %7

6:                                                ; preds = %3
  tail call void (ptr, ...) @cli_errmsg(ptr noundef nonnull @.str.205) #17
  br label %27

7:                                                ; preds = %3
  %8 = zext nneg i32 %0 to i64
  %9 = shl nuw nsw i64 %8, 3
  %10 = tail call ptr @cli_max_malloc(i64 noundef %9) #17
  store ptr %10, ptr %4, align 8
  %11 = shl nuw nsw i64 %8, 2
  %12 = tail call ptr @cli_max_malloc(i64 noundef %11) #17
  %13 = getelementptr inbounds i8, ptr %4, i64 8
  store ptr %12, ptr %13, align 8
  %14 = tail call ptr @cli_safer_strdup(ptr noundef %1) #17
  %15 = getelementptr inbounds i8, ptr %4, i64 40
  store ptr %14, ptr %15, align 8
  %16 = tail call ptr @cli_max_malloc(i64 noundef %11) #17
  %17 = getelementptr inbounds i8, ptr %4, i64 16
  store ptr %16, ptr %17, align 8
  %18 = icmp eq ptr %12, null
  %19 = icmp eq ptr %10, null
  %or.cond20 = select i1 %18, i1 true, i1 %19
  br i1 %or.cond20, label %23, label %20

20:                                               ; preds = %7
  %21 = icmp eq ptr %14, null
  %22 = icmp eq ptr %16, null
  %or.cond = select i1 %21, i1 true, i1 %22
  br i1 %or.cond, label %23, label %24

23:                                               ; preds = %20, %7
  tail call void @cli_free_vba_project(ptr noundef nonnull %4)
  tail call void (ptr, ...) @cli_errmsg(ptr noundef nonnull @.str.206) #17
  br label %27

24:                                               ; preds = %20
  %25 = getelementptr inbounds i8, ptr %4, i64 56
  store i32 %0, ptr %25, align 8
  %26 = getelementptr inbounds i8, ptr %4, i64 48
  store ptr %2, ptr %26, align 8
  br label %27

27:                                               ; preds = %24, %23, %6
  %.0 = phi ptr [ null, %6 ], [ null, %23 ], [ %4, %24 ]
  ret ptr %.0
}